; Function Attrs: nounwind uwtable
define i32 @nghttp2_submit_response2(ptr noundef %0, i32 noundef %1, ptr noundef %2, i64 noundef %3, ptr noundef %4) local_unnamed_addr #0 {
  %6 = alloca %struct.nghttp2_data_provider_wrap, align 8
  call void @llvm.lifetime.start.p0(i64 24, ptr nonnull %6) #8
  %7 = call ptr @nghttp2_data_provider_wrap_v2(ptr noundef nonnull %6, ptr noundef %4) #8
  %8 = icmp slt i32 %1, 1
  br i1 %8, label %submit_response_shared.exit, label %9

9:                                                ; preds = %5
  %10 = getelementptr inbounds nuw i8, ptr %0, i64 2675
  %11 = load i8, ptr %10, align 1, !tbaa !39
  %.not.i = icmp eq i8 %11, 0
  br i1 %.not.i, label %submit_response_shared.exit, label %12

12:                                               ; preds = %9
  %13 = icmp eq ptr %7, null
  br i1 %13, label %18, label %14

14:                                               ; preds = %12
  %15 = getelementptr inbounds nuw i8, ptr %7, i64 16
  %16 = load ptr, ptr %15, align 8, !tbaa !7
  %17 = icmp eq ptr %16, null
  br i1 %17, label %18, label %set_response_flags.exit.i

18:                                               ; preds = %14, %12
  br label %set_response_flags.exit.i

set_response_flags.exit.i:                        ; preds = %18, %14
  %.0.i.i = phi i8 [ 1, %18 ], [ 0, %14 ]
  %19 = call fastcc i32 @submit_headers_shared_nva(ptr noundef nonnull %0, i8 noundef zeroext %.0.i.i, i32 noundef %1, ptr noundef %2, i64 noundef %3, ptr noundef %7, ptr noundef null)
  br label %submit_response_shared.exit

submit_response_shared.exit:                      ; preds = %5, %9, %set_response_flags.exit.i
  %.0.i = phi i32 [ %19, %set_response_flags.exit.i ], [ -501, %5 ], [ -505, %9 ]
  call void @llvm.lifetime.end.p0(i64 24, ptr nonnull %6) #8
  ret i32 %.0.i
}